target datalayout = "e-m:e-p270:32:32-p271:32:32-p272:64:64-i64:64-i128:128-f80:128-n8:16:32:64-S128"
target triple = "x86_64-pc-linux-gnu"

%struct.decNumber = type { i32, i32, i8, [1 x i8] }

@_ZL9DECPOWERS = internal constant [10 x i32] [i32 1, i32 10, i32 100, i32 1000, i32 10000, i32 100000, i32 1000000, i32 10000000, i32 100000000, i32 1000000000], align 16

; Function Attrs: mustprogress uwtable
define i32 @uprv_decNumberToInt32_77(ptr noundef %0, ptr noundef %1) #0 {
  %3 = alloca i32, align 4
  %4 = alloca ptr, align 8
  %5 = alloca ptr, align 8
  %6 = alloca i32, align 4
  %7 = alloca ptr, align 8
  %8 = alloca i32, align 4
  %9 = alloca i32, align 4
  %10 = alloca i32, align 4
  %11 = alloca i32, align 4
  store ptr %0, ptr %4, align 8, !tbaa !3
  store ptr %1, ptr %5, align 8, !tbaa !3
  %12 = load ptr, ptr %4, align 8, !tbaa !3
  %13 = getelementptr inbounds nuw %struct.decNumber, ptr %12, i32 0, i32 2
  %14 = load i8, ptr %13, align 4, !tbaa !9
  %15 = zext i8 %14 to i32
  %16 = and i32 %15, 112
  %17 = icmp ne i32 %16, 0
  br i1 %17, label %28, label %18

18:                                               ; preds = %2
  %19 = load ptr, ptr %4, align 8, !tbaa !3
  %20 = getelementptr inbounds nuw %struct.decNumber, ptr %19, i32 0, i32 0
  %21 = load i32, ptr %20, align 4, !tbaa !16
  %22 = icmp sgt i32 %21, 10
  br i1 %22, label %28, label %23

23:                                               ; preds = %18
  %24 = load ptr, ptr %4, align 8, !tbaa !3
  %25 = getelementptr inbounds nuw %struct.decNumber, ptr %24, i32 0, i32 1
  %26 = load i32, ptr %25, align 4, !tbaa !17
  %27 = icmp ne i32 %26, 0
  br i1 %27, label %28, label %29

28:                                               ; preds = %23, %18, %2
  br label %109

29:                                               ; preds = %23
  call void @llvm.lifetime.start.p0(i64 4, ptr %6) #8
  call void @llvm.lifetime.start.p0(i64 8, ptr %7) #8
  call void @llvm.lifetime.start.p0(i64 4, ptr %8) #8
  store i32 0, ptr %8, align 4, !tbaa !7
  call void @llvm.lifetime.start.p0(i64 4, ptr %9) #8
  %30 = load ptr, ptr %4, align 8, !tbaa !3
  %31 = getelementptr inbounds nuw %struct.decNumber, ptr %30, i32 0, i32 3
  %32 = getelementptr inbounds [1 x i8], ptr %31, i64 0, i64 0
  store ptr %32, ptr %7, align 8, !tbaa !11
  %33 = load ptr, ptr %7, align 8, !tbaa !11
  %34 = load i8, ptr %33, align 1, !tbaa !13
  %35 = zext i8 %34 to i32
  store i32 %35, ptr %9, align 4, !tbaa !7
  %36 = load ptr, ptr %7, align 8, !tbaa !11
  %37 = getelementptr inbounds nuw i8, ptr %36, i32 1
  store ptr %37, ptr %7, align 8, !tbaa !11
  store i32 1, ptr %6, align 4, !tbaa !7
  br label %38

38:                                               ; preds = %56, %29
  %39 = load i32, ptr %6, align 4, !tbaa !7
  %40 = load ptr, ptr %4, align 8, !tbaa !3
  %41 = getelementptr inbounds nuw %struct.decNumber, ptr %40, i32 0, i32 0
  %42 = load i32, ptr %41, align 4, !tbaa !16
  %43 = icmp slt i32 %39, %42
  br i1 %43, label %44, label %61

44:                                               ; preds = %38
  %45 = load ptr, ptr %7, align 8, !tbaa !11
  %46 = load i8, ptr %45, align 1, !tbaa !13
  %47 = zext i8 %46 to i32
  %48 = load i32, ptr %6, align 4, !tbaa !7
  %49 = sub nsw i32 %48, 1
  %50 = sext i32 %49 to i64
  %51 = getelementptr inbounds [10 x i32], ptr @_ZL9DECPOWERS, i64 0, i64 %50
  %52 = load i32, ptr %51, align 4, !tbaa !7
  %53 = mul i32 %47, %52
  %54 = load i32, ptr %8, align 4, !tbaa !7
  %55 = add i32 %54, %53
  store i32 %55, ptr %8, align 4, !tbaa !7
  br label %56

56:                                               ; preds = %44
  %57 = load ptr, ptr %7, align 8, !tbaa !11
  %58 = getelementptr inbounds nuw i8, ptr %57, i32 1
  store ptr %58, ptr %7, align 8, !tbaa !11
  %59 = load i32, ptr %6, align 4, !tbaa !7
  %60 = add nsw i32 %59, 1
  store i32 %60, ptr %6, align 4, !tbaa !7
  br label %38, !llvm.loop !19

61:                                               ; preds = %38
  %62 = load i32, ptr %8, align 4, !tbaa !7
  %63 = icmp ugt i32 %62, 214748364
  br i1 %63, label %70, label %64

64:                                               ; preds = %61
  %65 = load i32, ptr %8, align 4, !tbaa !7
  %66 = icmp eq i32 %65, 214748364
  br i1 %66, label %67, label %85

67:                                               ; preds = %64
  %68 = load i32, ptr %9, align 4, !tbaa !7
  %69 = icmp ugt i32 %68, 7
  br i1 %69, label %70, label %85

70:                                               ; preds = %67, %61
  %71 = load ptr, ptr %4, align 8, !tbaa !3
  %72 = getelementptr inbounds nuw %struct.decNumber, ptr %71, i32 0, i32 2
  %73 = load i8, ptr %72, align 4, !tbaa !9
  %74 = zext i8 %73 to i32
  %75 = and i32 %74, 128
  %76 = icmp ne i32 %75, 0
  br i1 %76, label %77, label %84

77:                                               ; preds = %70
  %78 = load i32, ptr %8, align 4, !tbaa !7
  %79 = icmp eq i32 %78, 214748364
  br i1 %79, label %80, label %84

80:                                               ; preds = %77
  %81 = load i32, ptr %9, align 4, !tbaa !7
  %82 = icmp eq i32 %81, 8
  br i1 %82, label %83, label %84

83:                                               ; preds = %80
  store i32 -2147483648, ptr %3, align 4
  store i32 1, ptr %10, align 4
  br label %106

84:                                               ; preds = %80, %77, %70
  br label %105

85:                                               ; preds = %67, %64
  call void @llvm.lifetime.start.p0(i64 4, ptr %11) #8
  %86 = load i32, ptr %8, align 4, !tbaa !7
  %87 = shl i32 %86, 1
  %88 = load i32, ptr %8, align 4, !tbaa !7
  %89 = shl i32 %88, 3
  %90 = add i32 %87, %89
  %91 = load i32, ptr %9, align 4, !tbaa !7
  %92 = add i32 %90, %91
  store i32 %92, ptr %11, align 4, !tbaa !7
  %93 = load ptr, ptr %4, align 8, !tbaa !3
  %94 = getelementptr inbounds nuw %struct.decNumber, ptr %93, i32 0, i32 2
  %95 = load i8, ptr %94, align 4, !tbaa !9
  %96 = zext i8 %95 to i32
  %97 = and i32 %96, 128
  %98 = icmp ne i32 %97, 0
  br i1 %98, label %99, label %102

99:                                               ; preds = %85
  %100 = load i32, ptr %11, align 4, !tbaa !7
  %101 = sub nsw i32 0, %100
  store i32 %101, ptr %3, align 4
  store i32 1, ptr %10, align 4
  br label %104

102:                                              ; preds = %85
  %103 = load i32, ptr %11, align 4, !tbaa !7
  store i32 %103, ptr %3, align 4
  store i32 1, ptr %10, align 4
  br label %104

104:                                              ; preds = %102, %99
  call void @llvm.lifetime.end.p0(i64 4, ptr %11) #8
  br label %106

105:                                              ; preds = %84
  store i32 0, ptr %10, align 4
  br label %106

106:                                              ; preds = %105, %104, %83
  call void @llvm.lifetime.end.p0(i64 4, ptr %9) #8
  call void @llvm.lifetime.end.p0(i64 4, ptr %8) #8
  call void @llvm.lifetime.end.p0(i64 8, ptr %7) #8
  call void @llvm.lifetime.end.p0(i64 4, ptr %6) #8
  %107 = load i32, ptr %10, align 4
  switch i32 %107, label %114 [
    i32 0, label %108
    i32 1, label %112
  ]

108:                                              ; preds = %106
  br label %109

109:                                              ; preds = %108, %28
  %110 = load ptr, ptr %5, align 8, !tbaa !3
  %111 = call ptr @uprv_decContextSetStatus_77(ptr noundef %110, i32 noundef 128)
  store i32 0, ptr %3, align 4
  br label %112

112:                                              ; preds = %109, %106
  %113 = load i32, ptr %3, align 4
  ret i32 %113

114:                                              ; preds = %106
  unreachable
}