; Function Attrs: mustprogress uwtable
define i32 @uprv_decNumberToInt32_77(ptr noundef readonly captures(none) %0, ptr noundef %1) local_unnamed_addr #3 {
  %3 = getelementptr inbounds nuw i8, ptr %0, i64 8
  %4 = load i8, ptr %3, align 4, !tbaa !3
  %5 = and i8 %4, 112
  %.not = icmp eq i8 %5, 0
  br i1 %.not, label %6, label %.thread

6:                                                ; preds = %2
  %7 = load i32, ptr %0, align 4, !tbaa !9
  %8 = icmp sgt i32 %7, 10
  br i1 %8, label %.thread, label %9

9:                                                ; preds = %6
  %10 = getelementptr inbounds nuw i8, ptr %0, i64 4
  %11 = load i32, ptr %10, align 4, !tbaa !8
  %.not37 = icmp eq i32 %11, 0
  br i1 %.not37, label %12, label %.thread

12:                                               ; preds = %9
  %13 = getelementptr inbounds nuw i8, ptr %0, i64 9
  %14 = load i8, ptr %13, align 1, !tbaa !10
  %15 = zext i8 %14 to i32
  %16 = icmp sgt i32 %7, 1
  br i1 %16, label %.lr.ph.preheader, label %.thread43

.lr.ph.preheader:                                 ; preds = %12
  %17 = getelementptr inbounds nuw i8, ptr %0, i64 10
  %wide.trip.count = zext nneg i32 %7 to i64
  br label %.lr.ph

.lr.ph:                                           ; preds = %.lr.ph.preheader, %.lr.ph
  %indvars.iv = phi i64 [ 1, %.lr.ph.preheader ], [ %indvars.iv.next, %.lr.ph ]
  %.03552 = phi i32 [ 0, %.lr.ph.preheader ], [ %24, %.lr.ph ]
  %.03651 = phi ptr [ %17, %.lr.ph.preheader ], [ %25, %.lr.ph ]
  %18 = load i8, ptr %.03651, align 1, !tbaa !10
  %19 = zext i8 %18 to i32
  %20 = add nsw i64 %indvars.iv, -1
  %21 = getelementptr inbounds [10 x i32], ptr @_ZL9DECPOWERS, i64 0, i64 %20
  %22 = load i32, ptr %21, align 4, !tbaa !14
  %23 = mul i32 %22, %19
  %24 = add i32 %23, %.03552
  %25 = getelementptr inbounds nuw i8, ptr %.03651, i64 1
  %indvars.iv.next = add nuw nsw i64 %indvars.iv, 1
  %exitcond.not = icmp eq i64 %indvars.iv.next, %wide.trip.count
  br i1 %exitcond.not, label %._crit_edge, label %.lr.ph, !llvm.loop !15

._crit_edge:                                      ; preds = %.lr.ph
  %26 = icmp ugt i32 %24, 214748364
  br i1 %26, label %.thread, label %27

27:                                               ; preds = %._crit_edge
  %28 = icmp eq i32 %24, 214748364
  %29 = icmp ugt i8 %14, 7
  %or.cond = select i1 %28, i1 %29, i1 false
  br i1 %or.cond, label %30, label %.thread43

30:                                               ; preds = %27
  %31 = icmp sgt i8 %4, -1
  %32 = icmp ne i8 %14, 8
  %or.cond49 = select i1 %31, i1 true, i1 %32
  br i1 %or.cond49, label %.thread, label %37

.thread43:                                        ; preds = %12, %27
  %.035.lcssa5660 = phi i32 [ %24, %27 ], [ 0, %12 ]
  %33 = mul nuw nsw i32 %.035.lcssa5660, 10
  %34 = add nuw i32 %33, %15
  %35 = sub nsw i32 0, %34
  %.not3850 = icmp slt i8 %4, 0
  %.1 = select i1 %.not3850, i32 %35, i32 %34
  br label %37

.thread:                                          ; preds = %._crit_edge, %30, %2, %6, %9
  %36 = tail call ptr @uprv_decContextSetStatus_77(ptr noundef %1, i32 noundef 128)
  br label %37

37:                                               ; preds = %30, %.thread43, %.thread
  %.2 = phi i32 [ 0, %.thread ], [ %.1, %.thread43 ], [ -2147483648, %30 ]
  ret i32 %.2
}